; Function Attrs: mustprogress nounwind uwtable
define internal void @_ZL29write_module_dependency_eventPKvPK11ModuleEntry(ptr noundef %0, ptr noundef %1) #0 {
  %3 = alloca %class.EventModuleRequire, align 8
  %4 = getelementptr inbounds i8, ptr %3, i64 16
  store i8 1, ptr %4, align 8
  %5 = getelementptr inbounds i8, ptr %3, i64 17
  store i8 0, ptr %5, align 1
  %6 = getelementptr inbounds i8, ptr %3, i64 18
  store i8 0, ptr %6, align 2
  %7 = load i64, ptr @_ZL15invocation_time.0, align 8
  store i64 %7, ptr %3, align 8
  %8 = getelementptr inbounds i8, ptr %3, i64 8
  store i64 %7, ptr %8, align 8
  %9 = getelementptr inbounds i8, ptr %3, i64 24
  store ptr %0, ptr %9, align 8
  %10 = getelementptr inbounds i8, ptr %3, i64 32
  store ptr %1, ptr %10, align 8
  call void @_ZN8JfrEventI18EventModuleRequireE6commitEv(ptr noundef nonnull align 8 dereferenceable(19) %3)
  ret void
}